; Function Attrs: nounwind sspstrong uwtable
define hidden ptr @rb_const_lookup(i64 noundef %0, i64 noundef %1) local_unnamed_addr #0 {
  %3 = alloca i64, align 8
  %4 = alloca i32, align 4
  %5 = inttoptr i64 %0 to ptr
  %6 = getelementptr inbounds nuw i8, ptr %5, i64 40
  %7 = load ptr, ptr %6, align 8, !tbaa !142
  %.not = icmp eq ptr %7, null
  br i1 %.not, label %16, label %8

8:                                                ; preds = %2
  call void @llvm.lifetime.start.p0(i64 8, ptr nonnull %3) #27
  call void @llvm.lifetime.start.p0(i64 4, ptr nonnull %4) #27
  %9 = load ptr, ptr @ruby_single_main_ractor, align 8, !tbaa !68
  %.not.i.i = icmp eq ptr %9, null
  br i1 %.not.i.i, label %10, label %rb_vm_lock_enter.exit

10:                                               ; preds = %8
  call void @rb_vm_lock_enter_body(ptr noundef nonnull %4) #27
  br label %rb_vm_lock_enter.exit

rb_vm_lock_enter.exit:                            ; preds = %8, %10
  %11 = call i32 @rb_id_table_lookup(ptr noundef nonnull %7, i64 noundef %1, ptr noundef nonnull %3) #27
  %.not8 = icmp eq i32 %11, 0
  %12 = load ptr, ptr @ruby_single_main_ractor, align 8, !tbaa !68
  %.not.i.i9 = icmp eq ptr %12, null
  br i1 %.not.i.i9, label %13, label %rb_vm_lock_leave.exit

13:                                               ; preds = %rb_vm_lock_enter.exit
  call void @rb_vm_lock_leave_body(ptr noundef nonnull %4) #27
  br label %rb_vm_lock_leave.exit

rb_vm_lock_leave.exit:                            ; preds = %rb_vm_lock_enter.exit, %13
  call void @llvm.lifetime.end.p0(i64 4, ptr nonnull %4) #27
  %14 = load i64, ptr %3, align 8
  %15 = inttoptr i64 %14 to ptr
  call void @llvm.lifetime.end.p0(i64 8, ptr nonnull %3) #27
  br i1 %.not8, label %16, label %17

16:                                               ; preds = %rb_vm_lock_leave.exit, %2
  br label %17

17:                                               ; preds = %rb_vm_lock_leave.exit, %16
  %.1 = phi ptr [ null, %16 ], [ %15, %rb_vm_lock_leave.exit ]
  ret ptr %.1
}